; ModuleID = '49/1023.c'
source_filename = "49/1023.c"
target datalayout = "e-m:e-p270:32:32-p271:32:32-p272:64:64-i64:64-f80:128-n8:16:32:64-S128"
target triple = "x86_64-pc-linux-gnu"

@.str = private unnamed_addr constant [3 x i8] c"%s\00", align 1
@.str.1 = private unnamed_addr constant [3 x i8] c"%c\00", align 1
@.str.2 = private unnamed_addr constant [2 x i8] c"\0A\00", align 1

; Function Attrs: noinline nounwind uwtable
define dso_local i32 @main() #0 {
  %1 = alloca i32, align 4
  %2 = alloca i32, align 4
  %3 = alloca i32, align 4
  %4 = alloca i32, align 4
  %5 = alloca i32, align 4
  %6 = alloca i32, align 4
  %7 = alloca i32, align 4
  %8 = alloca [500 x i8], align 16
  store i32 0, i32* %1, align 4
  store i32 0, i32* %6, align 4
  store i32 0, i32* %7, align 4
  %9 = getelementptr inbounds [500 x i8], [500 x i8]* %8, i64 0, i64 0
  %10 = call i32 (i8*, ...) @__isoc99_scanf(i8* getelementptr inbounds ([3 x i8], [3 x i8]* @.str, i64 0, i64 0), i8* %9)
  %11 = getelementptr inbounds [500 x i8], [500 x i8]* %8, i64 0, i64 0
  %12 = call i64 @strlen(i8* %11) #3
  %13 = trunc i64 %12 to i32
  store i32 %13, i32* %4, align 4
  store i32 2, i32* %2, align 4
  br label %14

14:                                               ; preds = %94, %0
  %15 = load i32, i32* %2, align 4
  %16 = load i32, i32* %4, align 4
  %17 = icmp sle i32 %15, %16
  br i1 %17, label %18, label %97

18:                                               ; preds = %14
  store i32 0, i32* %3, align 4
  br label %19

19:                                               ; preds = %90, %18
  %20 = load i32, i32* %3, align 4
  %21 = load i32, i32* %4, align 4
  %22 = load i32, i32* %2, align 4
  %23 = sub nsw i32 %21, %22
  %24 = icmp sle i32 %20, %23
  br i1 %24, label %25, label %93

25:                                               ; preds = %19
  store i32 0, i32* %5, align 4
  br label %26

26:                                               ; preds = %55, %25
  %27 = load i32, i32* %5, align 4
  %28 = load i32, i32* %2, align 4
  %29 = sdiv i32 %28, 2
  %30 = sub nsw i32 %29, 1
  %31 = icmp sle i32 %27, %30
  br i1 %31, label %32, label %58

32:                                               ; preds = %26
  %33 = load i32, i32* %5, align 4
  %34 = load i32, i32* %3, align 4
  %35 = add nsw i32 %33, %34
  %36 = sext i32 %35 to i64
  %37 = getelementptr inbounds [500 x i8], [500 x i8]* %8, i64 0, i64 %36
  %38 = load i8, i8* %37, align 1
  %39 = sext i8 %38 to i32
  %40 = load i32, i32* %3, align 4
  %41 = load i32, i32* %2, align 4
  %42 = add nsw i32 %40, %41
  %43 = load i32, i32* %5, align 4
  %44 = sub nsw i32 %42, %43
  %45 = sub nsw i32 %44, 1
  %46 = sext i32 %45 to i64
  %47 = getelementptr inbounds [500 x i8], [500 x i8]* %8, i64 0, i64 %46
  %48 = load i8, i8* %47, align 1
  %49 = sext i8 %48 to i32
  %50 = icmp eq i32 %39, %49
  br i1 %50, label %51, label %54

51:                                               ; preds = %32
  %52 = load i32, i32* %6, align 4
  %53 = add nsw i32 %52, 1
  store i32 %53, i32* %6, align 4
  br label %54

54:                                               ; preds = %51, %32
  br label %55

55:                                               ; preds = %54
  %56 = load i32, i32* %5, align 4
  %57 = add nsw i32 %56, 1
  store i32 %57, i32* %5, align 4
  br label %26

58:                                               ; preds = %26
  %59 = load i32, i32* %6, align 4
  %60 = load i32, i32* %2, align 4
  %61 = sdiv i32 %60, 2
  %62 = icmp eq i32 %59, %61
  br i1 %62, label %63, label %84

63:                                               ; preds = %58
  store i32 0, i32* %5, align 4
  br label %64

64:                                               ; preds = %78, %63
  %65 = load i32, i32* %5, align 4
  %66 = load i32, i32* %2, align 4
  %67 = sub nsw i32 %66, 1
  %68 = icmp sle i32 %65, %67
  br i1 %68, label %69, label %81

69:                                               ; preds = %64
  %70 = load i32, i32* %3, align 4
  %71 = load i32, i32* %5, align 4
  %72 = add nsw i32 %70, %71
  %73 = sext i32 %72 to i64
  %74 = getelementptr inbounds [500 x i8], [500 x i8]* %8, i64 0, i64 %73
  %75 = load i8, i8* %74, align 1
  %76 = sext i8 %75 to i32
  %77 = call i32 (i8*, ...) @printf(i8* getelementptr inbounds ([3 x i8], [3 x i8]* @.str.1, i64 0, i64 0), i32 %76)
  br label %78

78:                                               ; preds = %69
  %79 = load i32, i32* %5, align 4
  %80 = add nsw i32 %79, 1
  store i32 %80, i32* %5, align 4
  br label %64

81:                                               ; preds = %64
  %82 = load i32, i32* %7, align 4
  %83 = add nsw i32 %82, 1
  store i32 %83, i32* %7, align 4
  br label %84

84:                                               ; preds = %81, %58
  store i32 0, i32* %6, align 4
  %85 = load i32, i32* %7, align 4
  %86 = icmp ne i32 %85, 0
  br i1 %86, label %87, label %89

87:                                               ; preds = %84
  %88 = call i32 (i8*, ...) @printf(i8* getelementptr inbounds ([2 x i8], [2 x i8]* @.str.2, i64 0, i64 0))
  br label %89

89:                                               ; preds = %87, %84
  store i32 0, i32* %7, align 4
  br label %90

90:                                               ; preds = %89
  %91 = load i32, i32* %3, align 4
  %92 = add nsw i32 %91, 1
  store i32 %92, i32* %3, align 4
  br label %19

93:                                               ; preds = %19
  br label %94

94:                                               ; preds = %93
  %95 = load i32, i32* %2, align 4
  %96 = add nsw i32 %95, 1
  store i32 %96, i32* %2, align 4
  br label %14

97:                                               ; preds = %14
  %98 = load i32, i32* %1, align 4
  ret i32 %98
}

declare dso_local i32 @__isoc99_scanf(i8*, ...) #1

; Function Attrs: nounwind readonly
declare dso_local i64 @strlen(i8*) #2

declare dso_local i32 @printf(i8*, ...) #1


!llvm.module.flags = !{!0}
!llvm.ident = !{!1}

!0 = !{i32 1, !"wchar_size", i32 4}
!1 = !{!"clang version 10.0.0-4ubuntu1 "}
